target datalayout = "e-m:e-p270:32:32-p271:32:32-p272:64:64-i64:64-i128:128-f80:128-n8:16:32:64-S128"
target triple = "x86_64-unknown-linux-gnu"

%struct.MemoryRegionOps = type { ptr, ptr, ptr, ptr, i32, %struct.anon, %struct.anon.4 }
%struct.anon = type { i32, i32, i8, ptr }
%struct.anon.4 = type { i32, i32, i8 }
%struct.PCIDevice = type { %struct.DeviceState, i8, i8, ptr, ptr, ptr, ptr, ptr, i32, %struct.PCIReqIDCache, [64 x i8], [7 x %struct.PCIIORegion], %struct.AddressSpace, %struct.MemoryRegion, %struct.MemoryRegion, ptr, ptr, [3 x ptr], i8, i8, i32, i8, i32, ptr, ptr, ptr, ptr, ptr, ptr, %struct.MemoryRegion, %struct.MemoryRegion, %struct.MemoryRegion, ptr, i8, i32, i8, %struct.PCIExpressDevice, ptr, ptr, i32, i8, %struct.MemoryRegion, i32, ptr, ptr, ptr, ptr, ptr, i32 }
%struct.DeviceState = type { %struct.Object, ptr, ptr, i8, i8, i64, ptr, i32, i8, ptr, %struct.NamedGPIOListHead, %struct.NamedClockListHead, %struct.BusStateHead, i32, i32, i32, %struct.ResettableState, ptr, %struct.MemReentrancyGuard }
%struct.Object = type { ptr, ptr, ptr, i32, ptr }
%struct.NamedGPIOListHead = type { ptr }
%struct.NamedClockListHead = type { ptr }
%struct.BusStateHead = type { ptr }
%struct.ResettableState = type { i32, i8, i8 }
%struct.MemReentrancyGuard = type { i8 }
%struct.PCIReqIDCache = type { ptr, i32 }
%struct.PCIIORegion = type { i64, i64, i8, ptr, ptr }
%struct.AddressSpace = type { %struct.rcu_head, ptr, ptr, ptr, i32, i32, ptr, %union.anon, %union.anon.0 }
%struct.rcu_head = type { ptr, ptr }
%union.anon = type { %struct.QTailQLink }
%struct.QTailQLink = type { ptr, ptr }
%union.anon.0 = type { %struct.QTailQLink }
%struct.PCIExpressDevice = type { i8, i8, i8, i16, %struct.PCIEAERLog, i16, i16, i16, %struct.PCIESriovPF, %struct.PCIESriovVF }
%struct.PCIEAERLog = type { i16, i16, ptr }
%struct.PCIESriovPF = type { i16, [7 x i8], ptr, ptr }
%struct.PCIESriovVF = type { ptr, i16 }
%struct.MemoryRegion = type { %struct.Object, i8, i8, i8, i8, i8, i8, i8, i8, i8, i8, ptr, ptr, ptr, ptr, ptr, ptr, i32, i128, i64, ptr, i64, i8, i8, i8, i8, i8, ptr, i64, i32, %union.anon.1, %union.anon.2, %union.anon.3, ptr, i32, ptr, ptr, i8 }
%union.anon.1 = type { %struct.QTailQLink }
%union.anon.2 = type { %struct.QTailQLink }
%union.anon.3 = type { %struct.QTailQLink }

@.str.1 = private unnamed_addr constant [22 x i8] c"../qemu/hw/pci/msix.c\00", align 1
@msi_nonbroken = external global i8, align 1
@__func__.msix_init = private unnamed_addr constant [10 x i8] c"msix_init\00", align 1
@.str.2 = private unnamed_addr constant [47 x i8] c"MSI-X is not supported by interrupt controller\00", align 1
@.str.3 = private unnamed_addr constant [39 x i8] c"The number of MSI-X vectors is invalid\00", align 1
@.str.4 = private unnamed_addr constant [63 x i8] c"table & pba overlap, or they don't fit in BARs, or don't align\00", align 1
@msix_table_mmio_ops = internal constant %struct.MemoryRegionOps { ptr @msix_table_mmio_read, ptr @msix_table_mmio_write, ptr null, ptr null, i32 2, %struct.anon { i32 4, i32 8, i8 0, ptr null }, %struct.anon.4 { i32 0, i32 4, i8 0 } }, align 8
@.str.5 = private unnamed_addr constant [11 x i8] c"msix-table\00", align 1
@msix_pba_mmio_ops = internal constant %struct.MemoryRegionOps { ptr @msix_pba_mmio_read, ptr @msix_pba_mmio_write, ptr null, ptr null, i32 2, %struct.anon { i32 4, i32 8, i8 0, ptr null }, %struct.anon.4 { i32 0, i32 4, i8 0 } }, align 8
@.str.6 = private unnamed_addr constant [9 x i8] c"msix-pba\00", align 1

; Function Attrs: nounwind sspstrong uwtable
define internal void @stl_he_p(ptr noundef %ptr, i32 noundef %v) #0 {
entry:
  %ptr.addr = alloca ptr, align 8
  %v.addr = alloca i32, align 4
  store ptr %ptr, ptr %ptr.addr, align 8
  store i32 %v, ptr %v.addr, align 4
  %0 = load ptr, ptr %ptr.addr, align 8
  call void @llvm.memcpy.p0.p0.i64(ptr align 1 %0, ptr align 4 %v.addr, i64 4, i1 false)
  ret void
}

; Function Attrs: nounwind sspstrong uwtable
define internal void @stw_he_p(ptr noundef %ptr, i16 noundef zeroext %v) #0 {
entry:
  %ptr.addr = alloca ptr, align 8
  %v.addr = alloca i16, align 2
  store ptr %ptr, ptr %ptr.addr, align 8
  store i16 %v, ptr %v.addr, align 2
  %0 = load ptr, ptr %ptr.addr, align 8
  call void @llvm.memcpy.p0.p0.i64(ptr align 1 %0, ptr align 2 %v.addr, i64 2, i1 false)
  ret void
}

; Function Attrs: nounwind sspstrong uwtable
define internal void @stl_le_p(ptr noundef %ptr, i32 noundef %v) #0 {
entry:
  %ptr.addr = alloca ptr, align 8
  %v.addr = alloca i32, align 4
  store ptr %ptr, ptr %ptr.addr, align 8
  store i32 %v, ptr %v.addr, align 4
  %0 = load ptr, ptr %ptr.addr, align 8
  %1 = load i32, ptr %v.addr, align 4
  call void @stl_he_p(ptr noundef %0, i32 noundef %1)
  ret void
}

; Function Attrs: nounwind sspstrong uwtable
define internal void @stw_le_p(ptr noundef %ptr, i16 noundef zeroext %v) #0 {
entry:
  %ptr.addr = alloca ptr, align 8
  %v.addr = alloca i16, align 2
  store ptr %ptr, ptr %ptr.addr, align 8
  store i16 %v, ptr %v.addr, align 2
  %0 = load ptr, ptr %ptr.addr, align 8
  %1 = load i16, ptr %v.addr, align 2
  call void @stw_he_p(ptr noundef %0, i16 noundef zeroext %1)
  ret void
}

; Function Attrs: nounwind sspstrong uwtable
define internal i64 @range_get_last(i64 noundef %offset, i64 noundef %len) #0 {
entry:
  %offset.addr = alloca i64, align 8
  %len.addr = alloca i64, align 8
  store i64 %offset, ptr %offset.addr, align 8
  store i64 %len, ptr %len.addr, align 8
  %0 = load i64, ptr %offset.addr, align 8
  %1 = load i64, ptr %len.addr, align 8
  %add = add i64 %0, %1
  %sub = sub i64 %add, 1
  ret i64 %sub
}

; Function Attrs: nounwind sspstrong uwtable
define internal void @pci_set_long(ptr noundef %config, i32 noundef %val) #0 {
entry:
  %config.addr = alloca ptr, align 8
  %val.addr = alloca i32, align 4
  store ptr %config, ptr %config.addr, align 8
  store i32 %val, ptr %val.addr, align 4
  %0 = load ptr, ptr %config.addr, align 8
  %1 = load i32, ptr %val.addr, align 4
  call void @stl_le_p(ptr noundef %0, i32 noundef %1)
  ret void
}

; Function Attrs: nounwind sspstrong uwtable
define internal void @pci_set_word(ptr noundef %config, i16 noundef zeroext %val) #0 {
entry:
  %config.addr = alloca ptr, align 8
  %val.addr = alloca i16, align 2
  store ptr %config, ptr %config.addr, align 8
  store i16 %val, ptr %val.addr, align 2
  %0 = load ptr, ptr %config.addr, align 8
  %1 = load i16, ptr %val.addr, align 2
  call void @stw_le_p(ptr noundef %0, i16 noundef zeroext %1)
  ret void
}

; Function Attrs: nounwind sspstrong uwtable
define internal i32 @ranges_overlap(i64 noundef %first1, i64 noundef %len1, i64 noundef %first2, i64 noundef %len2) #0 {
entry:
  %first1.addr = alloca i64, align 8
  %len1.addr = alloca i64, align 8
  %first2.addr = alloca i64, align 8
  %len2.addr = alloca i64, align 8
  %last1 = alloca i64, align 8
  %last2 = alloca i64, align 8
  store i64 %first1, ptr %first1.addr, align 8
  store i64 %len1, ptr %len1.addr, align 8
  store i64 %first2, ptr %first2.addr, align 8
  store i64 %len2, ptr %len2.addr, align 8
  %0 = load i64, ptr %first1.addr, align 8
  %1 = load i64, ptr %len1.addr, align 8
  %call = call i64 @range_get_last(i64 noundef %0, i64 noundef %1)
  store i64 %call, ptr %last1, align 8
  %2 = load i64, ptr %first2.addr, align 8
  %3 = load i64, ptr %len2.addr, align 8
  %call1 = call i64 @range_get_last(i64 noundef %2, i64 noundef %3)
  store i64 %call1, ptr %last2, align 8
  %4 = load i64, ptr %last2, align 8
  %5 = load i64, ptr %first1.addr, align 8
  %cmp = icmp ult i64 %4, %5
  br i1 %cmp, label %lor.end, label %lor.rhs

lor.rhs:                                          ; preds = %entry
  %6 = load i64, ptr %last1, align 8
  %7 = load i64, ptr %first2.addr, align 8
  %cmp2 = icmp ult i64 %6, %7
  br label %lor.end

lor.end:                                          ; preds = %lor.rhs, %entry
  %8 = phi i1 [ true, %entry ], [ %cmp2, %lor.rhs ]
  %lnot = xor i1 %8, true
  %lnot.ext = zext i1 %lnot to i32
  ret i32 %lnot.ext
}

; Function Attrs: nounwind sspstrong uwtable
define dso_local i32 @msix_init(ptr noundef %dev, i16 noundef zeroext %nentries, ptr noundef %table_bar, i8 noundef zeroext %table_bar_nr, i32 noundef %table_offset, ptr noundef %pba_bar, i8 noundef zeroext %pba_bar_nr, i32 noundef %pba_offset, i8 noundef zeroext %cap_pos, ptr noundef %errp) #0 {
entry:
  %retval = alloca i32, align 4
  %dev.addr = alloca ptr, align 8
  %nentries.addr = alloca i16, align 2
  %table_bar.addr = alloca ptr, align 8
  %table_bar_nr.addr = alloca i8, align 1
  %table_offset.addr = alloca i32, align 4
  %pba_bar.addr = alloca ptr, align 8
  %pba_bar_nr.addr = alloca i8, align 1
  %pba_offset.addr = alloca i32, align 4
  %cap_pos.addr = alloca i8, align 1
  %errp.addr = alloca ptr, align 8
  %cap = alloca i32, align 4
  %table_size = alloca i32, align 4
  %pba_size = alloca i32, align 4
  %config = alloca ptr, align 8
  store ptr %dev, ptr %dev.addr, align 8
  store i16 %nentries, ptr %nentries.addr, align 2
  store ptr %table_bar, ptr %table_bar.addr, align 8
  store i8 %table_bar_nr, ptr %table_bar_nr.addr, align 1
  store i32 %table_offset, ptr %table_offset.addr, align 4
  store ptr %pba_bar, ptr %pba_bar.addr, align 8
  store i8 %pba_bar_nr, ptr %pba_bar_nr.addr, align 1
  store i32 %pba_offset, ptr %pba_offset.addr, align 4
  store i8 %cap_pos, ptr %cap_pos.addr, align 1
  store ptr %errp, ptr %errp.addr, align 8
  %0 = load i8, ptr @msi_nonbroken, align 1
  %tobool = trunc i8 %0 to i1
  br i1 %tobool, label %if.end, label %if.then

if.then:                                          ; preds = %entry
  %1 = load ptr, ptr %errp.addr, align 8
  call void (ptr, ptr, i32, ptr, ptr, ...) @error_setg_internal(ptr noundef %1, ptr noundef @.str.1, i32 noundef 324, ptr noundef @__func__.msix_init, ptr noundef @.str.2)
  store i32 -95, ptr %retval, align 4
  br label %return

if.end:                                           ; preds = %entry
  %2 = load i16, ptr %nentries.addr, align 2
  %conv = zext i16 %2 to i32
  %cmp = icmp slt i32 %conv, 1
  br i1 %cmp, label %if.then5, label %lor.lhs.false

lor.lhs.false:                                    ; preds = %if.end
  %3 = load i16, ptr %nentries.addr, align 2
  %conv2 = zext i16 %3 to i32
  %cmp3 = icmp sgt i32 %conv2, 2048
  br i1 %cmp3, label %if.then5, label %if.end6

if.then5:                                         ; preds = %lor.lhs.false, %if.end
  %4 = load ptr, ptr %errp.addr, align 8
  call void (ptr, ptr, i32, ptr, ptr, ...) @error_setg_internal(ptr noundef %4, ptr noundef @.str.1, i32 noundef 329, ptr noundef @__func__.msix_init, ptr noundef @.str.3)
  store i32 -22, ptr %retval, align 4
  br label %return

if.end6:                                          ; preds = %lor.lhs.false
  %5 = load i16, ptr %nentries.addr, align 2
  %conv7 = zext i16 %5 to i32
  %mul = mul i32 %conv7, 16
  store i32 %mul, ptr %table_size, align 4
  %6 = load i16, ptr %nentries.addr, align 2
  %conv8 = zext i16 %6 to i32
  %add = add i32 %conv8, 64
  %sub = sub i32 %add, 1
  %div = sdiv i32 %sub, 64
  %mul9 = mul i32 %div, 64
  %div10 = sdiv i32 %mul9, 8
  store i32 %div10, ptr %pba_size, align 4
  %7 = load i8, ptr %table_bar_nr.addr, align 1
  %conv11 = zext i8 %7 to i32
  %8 = load i8, ptr %pba_bar_nr.addr, align 1
  %conv12 = zext i8 %8 to i32
  %cmp13 = icmp eq i32 %conv11, %conv12
  br i1 %cmp13, label %land.lhs.true, label %lor.lhs.false20

land.lhs.true:                                    ; preds = %if.end6
  %9 = load i32, ptr %table_offset.addr, align 4
  %conv15 = zext i32 %9 to i64
  %10 = load i32, ptr %table_size, align 4
  %conv16 = zext i32 %10 to i64
  %11 = load i32, ptr %pba_offset.addr, align 4
  %conv17 = zext i32 %11 to i64
  %12 = load i32, ptr %pba_size, align 4
  %conv18 = zext i32 %12 to i64
  %call = call i32 @ranges_overlap(i64 noundef %conv15, i64 noundef %conv16, i64 noundef %conv17, i64 noundef %conv18)
  %tobool19 = icmp ne i32 %call, 0
  br i1 %tobool19, label %if.then34, label %lor.lhs.false20

lor.lhs.false20:                                  ; preds = %land.lhs.true, %if.end6
  %13 = load i32, ptr %table_offset.addr, align 4
  %14 = load i32, ptr %table_size, align 4
  %add21 = add i32 %13, %14
  %conv22 = zext i32 %add21 to i64
  %15 = load ptr, ptr %table_bar.addr, align 8
  %call23 = call i64 @memory_region_size(ptr noundef %15)
  %cmp24 = icmp ugt i64 %conv22, %call23
  br i1 %cmp24, label %if.then34, label %lor.lhs.false26

lor.lhs.false26:                                  ; preds = %lor.lhs.false20
  %16 = load i32, ptr %pba_offset.addr, align 4
  %17 = load i32, ptr %pba_size, align 4
  %add27 = add i32 %16, %17
  %conv28 = zext i32 %add27 to i64
  %18 = load ptr, ptr %pba_bar.addr, align 8
  %call29 = call i64 @memory_region_size(ptr noundef %18)
  %cmp30 = icmp ugt i64 %conv28, %call29
  br i1 %cmp30, label %if.then34, label %lor.lhs.false32

lor.lhs.false32:                                  ; preds = %lor.lhs.false26
  %19 = load i32, ptr %table_offset.addr, align 4
  %20 = load i32, ptr %pba_offset.addr, align 4
  %or = or i32 %19, %20
  %and = and i32 %or, 7
  %tobool33 = icmp ne i32 %and, 0
  br i1 %tobool33, label %if.then34, label %if.end35

if.then34:                                        ; preds = %lor.lhs.false32, %lor.lhs.false26, %lor.lhs.false20, %land.lhs.true
  %21 = load ptr, ptr %errp.addr, align 8
  call void (ptr, ptr, i32, ptr, ptr, ...) @error_setg_internal(ptr noundef %21, ptr noundef @.str.1, i32 noundef 343, ptr noundef @__func__.msix_init, ptr noundef @.str.4)
  store i32 -22, ptr %retval, align 4
  br label %return

if.end35:                                         ; preds = %lor.lhs.false32
  %22 = load ptr, ptr %dev.addr, align 8
  %23 = load i8, ptr %cap_pos.addr, align 1
  %24 = load ptr, ptr %errp.addr, align 8
  %call36 = call i32 @pci_add_capability(ptr noundef %22, i8 noundef zeroext 17, i8 noundef zeroext %23, i8 noundef zeroext 12, ptr noundef %24)
  store i32 %call36, ptr %cap, align 4
  %25 = load i32, ptr %cap, align 4
  %cmp37 = icmp slt i32 %25, 0
  br i1 %cmp37, label %if.then39, label %if.end40

if.then39:                                        ; preds = %if.end35
  %26 = load i32, ptr %cap, align 4
  store i32 %26, ptr %retval, align 4
  br label %return

if.end40:                                         ; preds = %if.end35
  %27 = load i32, ptr %cap, align 4
  %conv41 = trunc i32 %27 to i8
  %28 = load ptr, ptr %dev.addr, align 8
  %msix_cap = getelementptr inbounds %struct.PCIDevice, ptr %28, i32 0, i32 21
  store i8 %conv41, ptr %msix_cap, align 16
  %29 = load ptr, ptr %dev.addr, align 8
  %cap_present = getelementptr inbounds %struct.PCIDevice, ptr %29, i32 0, i32 20
  %30 = load i32, ptr %cap_present, align 4
  %or42 = or i32 %30, 2
  store i32 %or42, ptr %cap_present, align 4
  %31 = load ptr, ptr %dev.addr, align 8
  %config43 = getelementptr inbounds %struct.PCIDevice, ptr %31, i32 0, i32 3
  %32 = load ptr, ptr %config43, align 8
  %33 = load i32, ptr %cap, align 4
  %idx.ext = sext i32 %33 to i64
  %add.ptr = getelementptr i8, ptr %32, i64 %idx.ext
  store ptr %add.ptr, ptr %config, align 8
  %34 = load ptr, ptr %config, align 8
  %add.ptr44 = getelementptr i8, ptr %34, i64 2
  %35 = load i16, ptr %nentries.addr, align 2
  %conv45 = zext i16 %35 to i32
  %sub46 = sub i32 %conv45, 1
  %conv47 = trunc i32 %sub46 to i16
  call void @pci_set_word(ptr noundef %add.ptr44, i16 noundef zeroext %conv47)
  %36 = load i16, ptr %nentries.addr, align 2
  %conv48 = zext i16 %36 to i32
  %37 = load ptr, ptr %dev.addr, align 8
  %msix_entries_nr = getelementptr inbounds %struct.PCIDevice, ptr %37, i32 0, i32 22
  store i32 %conv48, ptr %msix_entries_nr, align 4
  %38 = load ptr, ptr %dev.addr, align 8
  %msix_function_masked = getelementptr inbounds %struct.PCIDevice, ptr %38, i32 0, i32 33
  store i8 1, ptr %msix_function_masked, align 8
  %39 = load ptr, ptr %config, align 8
  %add.ptr49 = getelementptr i8, ptr %39, i64 4
  %40 = load i32, ptr %table_offset.addr, align 4
  %41 = load i8, ptr %table_bar_nr.addr, align 1
  %conv50 = zext i8 %41 to i32
  %or51 = or i32 %40, %conv50
  call void @pci_set_long(ptr noundef %add.ptr49, i32 noundef %or51)
  %42 = load ptr, ptr %config, align 8
  %add.ptr52 = getelementptr i8, ptr %42, i64 8
  %43 = load i32, ptr %pba_offset.addr, align 4
  %44 = load i8, ptr %pba_bar_nr.addr, align 1
  %conv53 = zext i8 %44 to i32
  %or54 = or i32 %43, %conv53
  call void @pci_set_long(ptr noundef %add.ptr52, i32 noundef %or54)
  %45 = load ptr, ptr %dev.addr, align 8
  %wmask = getelementptr inbounds %struct.PCIDevice, ptr %45, i32 0, i32 5
  %46 = load ptr, ptr %wmask, align 8
  %47 = load i32, ptr %cap, align 4
  %add55 = add i32 %47, 3
  %idxprom = sext i32 %add55 to i64
  %arrayidx = getelementptr i8, ptr %46, i64 %idxprom
  %48 = load i8, ptr %arrayidx, align 1
  %conv56 = zext i8 %48 to i32
  %or57 = or i32 %conv56, 192
  %conv58 = trunc i32 %or57 to i8
  store i8 %conv58, ptr %arrayidx, align 1
  %49 = load i32, ptr %table_size, align 4
  %conv59 = zext i32 %49 to i64
  %call60 = call noalias ptr @g_malloc0(i64 noundef %conv59) #9
  %50 = load ptr, ptr %dev.addr, align 8
  %msix_table = getelementptr inbounds %struct.PCIDevice, ptr %50, i32 0, i32 23
  store ptr %call60, ptr %msix_table, align 8
  %51 = load i32, ptr %pba_size, align 4
  %conv61 = zext i32 %51 to i64
  %call62 = call noalias ptr @g_malloc0(i64 noundef %conv61) #9
  %52 = load ptr, ptr %dev.addr, align 8
  %msix_pba = getelementptr inbounds %struct.PCIDevice, ptr %52, i32 0, i32 24
  store ptr %call62, ptr %msix_pba, align 16
  %53 = load i16, ptr %nentries.addr, align 2
  %conv63 = zext i16 %53 to i64
  %mul64 = mul i64 %conv63, 4
  %call65 = call noalias ptr @g_malloc0(i64 noundef %mul64) #9
  %54 = load ptr, ptr %dev.addr, align 8
  %msix_entry_used = getelementptr inbounds %struct.PCIDevice, ptr %54, i32 0, i32 32
  store ptr %call65, ptr %msix_entry_used, align 16
  %55 = load ptr, ptr %dev.addr, align 8
  %56 = load i16, ptr %nentries.addr, align 2
  %conv66 = zext i16 %56 to i32
  call void @msix_mask_all(ptr noundef %55, i32 noundef %conv66)
  %57 = load ptr, ptr %dev.addr, align 8
  %msix_table_mmio = getelementptr inbounds %struct.PCIDevice, ptr %57, i32 0, i32 30
  %58 = load ptr, ptr %dev.addr, align 8
  %59 = load ptr, ptr %dev.addr, align 8
  %60 = load i32, ptr %table_size, align 4
  %conv67 = zext i32 %60 to i64
  call void @memory_region_init_io(ptr noundef %msix_table_mmio, ptr noundef %58, ptr noundef @msix_table_mmio_ops, ptr noundef %59, ptr noundef @.str.5, i64 noundef %conv67)
  %61 = load ptr, ptr %table_bar.addr, align 8
  %62 = load i32, ptr %table_offset.addr, align 4
  %conv68 = zext i32 %62 to i64
  %63 = load ptr, ptr %dev.addr, align 8
  %msix_table_mmio69 = getelementptr inbounds %struct.PCIDevice, ptr %63, i32 0, i32 30
  call void @memory_region_add_subregion(ptr noundef %61, i64 noundef %conv68, ptr noundef %msix_table_mmio69)
  %64 = load ptr, ptr %dev.addr, align 8
  %msix_pba_mmio = getelementptr inbounds %struct.PCIDevice, ptr %64, i32 0, i32 31
  %65 = load ptr, ptr %dev.addr, align 8
  %66 = load ptr, ptr %dev.addr, align 8
  %67 = load i32, ptr %pba_size, align 4
  %conv70 = zext i32 %67 to i64
  call void @memory_region_init_io(ptr noundef %msix_pba_mmio, ptr noundef %65, ptr noundef @msix_pba_mmio_ops, ptr noundef %66, ptr noundef @.str.6, i64 noundef %conv70)
  %68 = load ptr, ptr %pba_bar.addr, align 8
  %69 = load i32, ptr %pba_offset.addr, align 4
  %conv71 = zext i32 %69 to i64
  %70 = load ptr, ptr %dev.addr, align 8
  %msix_pba_mmio72 = getelementptr inbounds %struct.PCIDevice, ptr %70, i32 0, i32 31
  call void @memory_region_add_subregion(ptr noundef %68, i64 noundef %conv71, ptr noundef %msix_pba_mmio72)
  %71 = load ptr, ptr %dev.addr, align 8
  %msix_prepare_message = getelementptr inbounds %struct.PCIDevice, ptr %71, i32 0, i32 28
  store ptr @msix_prepare_message, ptr %msix_prepare_message, align 16
  store i32 0, ptr %retval, align 4
  br label %return

return:                                           ; preds = %if.end40, %if.then39, %if.then34, %if.then5, %if.then
  %72 = load i32, ptr %retval, align 4
  ret i32 %72
}