; Function Attrs: nounwind sspstrong uwtable
define dso_local range(i32 -2147483648, 1) i32 @msix_init(ptr noundef %dev, i16 noundef zeroext %nentries, ptr noundef %table_bar, i8 noundef zeroext %table_bar_nr, i32 noundef %table_offset, ptr noundef %pba_bar, i8 noundef zeroext %pba_bar_nr, i32 noundef %pba_offset, i8 noundef zeroext %cap_pos, ptr noundef %errp) local_unnamed_addr #0 {
entry:
  %0 = load i8, ptr @msi_nonbroken, align 1
  %tobool = trunc i8 %0 to i1
  br i1 %tobool, label %if.end, label %if.then

if.then:                                          ; preds = %entry
  tail call void (ptr, ptr, i32, ptr, ptr, ...) @error_setg_internal(ptr noundef %errp, ptr noundef nonnull @.str.1, i32 noundef 324, ptr noundef nonnull @__func__.msix_init, ptr noundef nonnull @.str.2) #14
  br label %return

if.end:                                           ; preds = %entry
  %conv = zext i16 %nentries to i32
  %1 = add i16 %nentries, -2049
  %or.cond = icmp ult i16 %1, -2048
  br i1 %or.cond, label %if.then5, label %if.end6

if.then5:                                         ; preds = %if.end
  tail call void (ptr, ptr, i32, ptr, ptr, ...) @error_setg_internal(ptr noundef %errp, ptr noundef nonnull @.str.1, i32 noundef 329, ptr noundef nonnull @__func__.msix_init, ptr noundef nonnull @.str.3) #14
  br label %return

if.end6:                                          ; preds = %if.end
  %mul = shl nuw nsw i32 %conv, 4
  %sub = add nuw nsw i32 %conv, 63
  %div54 = lshr i32 %sub, 3
  %div1055 = and i32 %div54, 1016
  %conv11 = zext i8 %table_bar_nr to i32
  %conv12 = zext i8 %pba_bar_nr to i32
  %cmp13 = icmp eq i8 %table_bar_nr, %pba_bar_nr
  br i1 %cmp13, label %land.lhs.true, label %lor.lhs.false20

land.lhs.true:                                    ; preds = %if.end6
  %conv15 = zext i32 %table_offset to i64
  %conv16 = zext nneg i32 %mul to i64
  %conv17 = zext i32 %pba_offset to i64
  %conv18 = zext nneg i32 %div1055 to i64
  %add.i.i = add nsw i64 %conv16, -1
  %sub.i.i = add nsw i64 %add.i.i, %conv15
  %add.i3.i = add nsw i64 %conv18, -1
  %sub.i4.i = add nsw i64 %add.i3.i, %conv17
  %cmp.i = icmp samesign ult i64 %sub.i4.i, %conv15
  %cmp2.i = icmp samesign ult i64 %sub.i.i, %conv17
  %.not.i.not = select i1 %cmp.i, i1 true, i1 %cmp2.i
  br i1 %.not.i.not, label %lor.lhs.false20, label %if.then34

lor.lhs.false20:                                  ; preds = %land.lhs.true, %if.end6
  %add21 = add i32 %table_offset, %mul
  %conv22 = zext i32 %add21 to i64
  %call23 = tail call i64 @memory_region_size(ptr noundef %table_bar) #14
  %cmp24 = icmp ult i64 %call23, %conv22
  br i1 %cmp24, label %if.then34, label %lor.lhs.false26

lor.lhs.false26:                                  ; preds = %lor.lhs.false20
  %add27 = add i32 %pba_offset, %div1055
  %conv28 = zext i32 %add27 to i64
  %call29 = tail call i64 @memory_region_size(ptr noundef %pba_bar) #14
  %cmp30 = icmp ult i64 %call29, %conv28
  br i1 %cmp30, label %if.then34, label %lor.lhs.false32

lor.lhs.false32:                                  ; preds = %lor.lhs.false26
  %or = or i32 %pba_offset, %table_offset
  %and = and i32 %or, 7
  %tobool33.not = icmp eq i32 %and, 0
  br i1 %tobool33.not, label %if.end35, label %if.then34

if.then34:                                        ; preds = %lor.lhs.false32, %lor.lhs.false26, %lor.lhs.false20, %land.lhs.true
  tail call void (ptr, ptr, i32, ptr, ptr, ...) @error_setg_internal(ptr noundef %errp, ptr noundef nonnull @.str.1, i32 noundef 343, ptr noundef nonnull @__func__.msix_init, ptr noundef nonnull @.str.4) #14
  br label %return

if.end35:                                         ; preds = %lor.lhs.false32
  %call36 = tail call i32 @pci_add_capability(ptr noundef %dev, i8 noundef zeroext 17, i8 noundef zeroext %cap_pos, i8 noundef zeroext 12, ptr noundef %errp) #14
  %cmp37 = icmp slt i32 %call36, 0
  br i1 %cmp37, label %return, label %if.end40

if.end40:                                         ; preds = %if.end35
  %conv41 = trunc i32 %call36 to i8
  %msix_cap = getelementptr inbounds nuw i8, ptr %dev, i64 1264
  store i8 %conv41, ptr %msix_cap, align 16
  %cap_present = getelementptr inbounds nuw i8, ptr %dev, i64 1260
  %2 = load i32, ptr %cap_present, align 4
  %or42 = or i32 %2, 2
  store i32 %or42, ptr %cap_present, align 4
  %config43 = getelementptr inbounds nuw i8, ptr %dev, i64 168
  %3 = load ptr, ptr %config43, align 8
  %idx.ext = zext nneg i32 %call36 to i64
  %add.ptr = getelementptr i8, ptr %3, i64 %idx.ext
  %add.ptr44 = getelementptr i8, ptr %add.ptr, i64 2
  %sub46 = add nsw i16 %nentries, -1
  store i16 %sub46, ptr %add.ptr44, align 1
  %msix_entries_nr = getelementptr inbounds nuw i8, ptr %dev, i64 1268
  store i32 %conv, ptr %msix_entries_nr, align 4
  %msix_function_masked = getelementptr inbounds nuw i8, ptr %dev, i64 2152
  store i8 1, ptr %msix_function_masked, align 8
  %add.ptr49 = getelementptr i8, ptr %add.ptr, i64 4
  %or51 = or i32 %table_offset, %conv11
  store i32 %or51, ptr %add.ptr49, align 1
  %add.ptr52 = getelementptr i8, ptr %add.ptr, i64 8
  %or54 = or i32 %pba_offset, %conv12
  store i32 %or54, ptr %add.ptr52, align 1
  %wmask = getelementptr inbounds nuw i8, ptr %dev, i64 184
  %4 = load ptr, ptr %wmask, align 8
  %add55 = add nuw i32 %call36, 3
  %idxprom = sext i32 %add55 to i64
  %arrayidx = getelementptr i8, ptr %4, i64 %idxprom
  %5 = load i8, ptr %arrayidx, align 1
  %6 = or i8 %5, -64
  store i8 %6, ptr %arrayidx, align 1
  %conv59 = zext nneg i32 %mul to i64
  %call60 = tail call noalias ptr @g_malloc0(i64 noundef %conv59) #16
  %msix_table = getelementptr inbounds nuw i8, ptr %dev, i64 1272
  store ptr %call60, ptr %msix_table, align 8
  %conv61 = zext nneg i32 %div1055 to i64
  %call62 = tail call noalias ptr @g_malloc0(i64 noundef %conv61) #16
  %msix_pba = getelementptr inbounds nuw i8, ptr %dev, i64 1280
  store ptr %call62, ptr %msix_pba, align 16
  %7 = shl nuw nsw i16 %nentries, 2
  %mul64 = zext nneg i16 %7 to i64
  %call65 = tail call noalias ptr @g_malloc0(i64 noundef %mul64) #16
  %msix_entry_used = getelementptr inbounds nuw i8, ptr %dev, i64 2144
  store ptr %call65, ptr %msix_entry_used, align 16
  tail call fastcc void @msix_mask_all(ptr noundef %dev, i32 noundef %conv)
  %msix_table_mmio = getelementptr inbounds nuw i8, ptr %dev, i64 1600
  tail call void @memory_region_init_io(ptr noundef nonnull %msix_table_mmio, ptr noundef %dev, ptr noundef nonnull @msix_table_mmio_ops, ptr noundef %dev, ptr noundef nonnull @.str.5, i64 noundef %conv59) #14
  %conv68 = zext i32 %table_offset to i64
  tail call void @memory_region_add_subregion(ptr noundef %table_bar, i64 noundef %conv68, ptr noundef nonnull %msix_table_mmio) #14
  %msix_pba_mmio = getelementptr inbounds nuw i8, ptr %dev, i64 1872
  tail call void @memory_region_init_io(ptr noundef nonnull %msix_pba_mmio, ptr noundef %dev, ptr noundef nonnull @msix_pba_mmio_ops, ptr noundef %dev, ptr noundef nonnull @.str.6, i64 noundef %conv61) #14
  %conv71 = zext i32 %pba_offset to i64
  tail call void @memory_region_add_subregion(ptr noundef %pba_bar, i64 noundef %conv71, ptr noundef nonnull %msix_pba_mmio) #14
  %msix_prepare_message = getelementptr inbounds nuw i8, ptr %dev, i64 1312
  store ptr @msix_prepare_message, ptr %msix_prepare_message, align 16
  br label %return

return:                                           ; preds = %if.end35, %if.end40, %if.then34, %if.then5, %if.then
  %retval.0 = phi i32 [ -22, %if.then5 ], [ -22, %if.then34 ], [ 0, %if.end40 ], [ -95, %if.then ], [ %call36, %if.end35 ]
  ret i32 %retval.0
}